target datalayout = "e-m:e-p270:32:32-p271:32:32-p272:64:64-i64:64-i128:128-f80:128-n8:16:32:64-S128"
target triple = "x86_64-pc-linux-gnu"

%struct.avifFraction = type { i32, i32 }

; Function Attrs: nounwind uwtable
define internal i64 @calcGCD(i64 noundef %0, i64 noundef %1) #0 {
  %3 = alloca i64, align 8
  %4 = alloca i64, align 8
  %5 = alloca i64, align 8
  store i64 %0, ptr %3, align 8
  store i64 %1, ptr %4, align 8
  %6 = load i64, ptr %3, align 8
  %7 = icmp slt i64 %6, 0
  br i1 %7, label %8, label %11

8:                                                ; preds = %2
  %9 = load i64, ptr %3, align 8
  %10 = mul nsw i64 %9, -1
  store i64 %10, ptr %3, align 8
  br label %11

11:                                               ; preds = %8, %2
  %12 = load i64, ptr %4, align 8
  %13 = icmp slt i64 %12, 0
  br i1 %13, label %14, label %17

14:                                               ; preds = %11
  %15 = load i64, ptr %4, align 8
  %16 = mul nsw i64 %15, -1
  store i64 %16, ptr %4, align 8
  br label %17

17:                                               ; preds = %14, %11
  br label %18

18:                                               ; preds = %21, %17
  %19 = load i64, ptr %4, align 8
  %20 = icmp ne i64 %19, 0
  br i1 %20, label %21, label %27

21:                                               ; preds = %18
  %22 = load i64, ptr %3, align 8
  %23 = load i64, ptr %4, align 8
  %24 = srem i64 %22, %23
  store i64 %24, ptr %5, align 8
  %25 = load i64, ptr %4, align 8
  store i64 %25, ptr %3, align 8
  %26 = load i64, ptr %5, align 8
  store i64 %26, ptr %4, align 8
  br label %18, !llvm.loop !4

27:                                               ; preds = %18
  %28 = load i64, ptr %3, align 8
  ret i64 %28
}

; Function Attrs: nounwind uwtable
define internal i32 @overflowsInt32(i64 noundef %0) #0 {
  %2 = alloca i64, align 8
  store i64 %0, ptr %2, align 8
  %3 = load i64, ptr %2, align 8
  %4 = icmp slt i64 %3, -2147483648
  br i1 %4, label %8, label %5

5:                                                ; preds = %1
  %6 = load i64, ptr %2, align 8
  %7 = icmp sgt i64 %6, 2147483647
  br label %8

8:                                                ; preds = %5, %1
  %9 = phi i1 [ true, %1 ], [ %7, %5 ]
  %10 = zext i1 %9 to i32
  ret i32 %10
}

; Function Attrs: nounwind uwtable
define hidden void @avifFractionSimplify(ptr noundef %0) #0 {
  %2 = alloca ptr, align 8
  %3 = alloca i64, align 8
  store ptr %0, ptr %2, align 8
  %4 = load ptr, ptr %2, align 8
  %5 = getelementptr inbounds nuw %struct.avifFraction, ptr %4, i32 0, i32 0
  %6 = load i32, ptr %5, align 4
  %7 = sext i32 %6 to i64
  %8 = load ptr, ptr %2, align 8
  %9 = getelementptr inbounds nuw %struct.avifFraction, ptr %8, i32 0, i32 1
  %10 = load i32, ptr %9, align 4
  %11 = sext i32 %10 to i64
  %12 = call i64 @calcGCD(i64 noundef %7, i64 noundef %11)
  store i64 %12, ptr %3, align 8
  %13 = load i64, ptr %3, align 8
  %14 = icmp sgt i64 %13, 1
  br i1 %14, label %15, label %34

15:                                               ; preds = %1
  %16 = load ptr, ptr %2, align 8
  %17 = getelementptr inbounds nuw %struct.avifFraction, ptr %16, i32 0, i32 0
  %18 = load i32, ptr %17, align 4
  %19 = sext i32 %18 to i64
  %20 = load i64, ptr %3, align 8
  %21 = sdiv i64 %19, %20
  %22 = trunc i64 %21 to i32
  %23 = load ptr, ptr %2, align 8
  %24 = getelementptr inbounds nuw %struct.avifFraction, ptr %23, i32 0, i32 0
  store i32 %22, ptr %24, align 4
  %25 = load ptr, ptr %2, align 8
  %26 = getelementptr inbounds nuw %struct.avifFraction, ptr %25, i32 0, i32 1
  %27 = load i32, ptr %26, align 4
  %28 = sext i32 %27 to i64
  %29 = load i64, ptr %3, align 8
  %30 = sdiv i64 %28, %29
  %31 = trunc i64 %30 to i32
  %32 = load ptr, ptr %2, align 8
  %33 = getelementptr inbounds nuw %struct.avifFraction, ptr %32, i32 0, i32 1
  store i32 %31, ptr %33, align 4
  br label %34

34:                                               ; preds = %15, %1
  ret void
}

; Function Attrs: nounwind uwtable
define hidden i32 @avifFractionCD(ptr noundef %0, ptr noundef %1) #0 {
  %3 = alloca i32, align 4
  %4 = alloca ptr, align 8
  %5 = alloca ptr, align 8
  %6 = alloca i64, align 8
  %7 = alloca i64, align 8
  %8 = alloca i64, align 8
  %9 = alloca i64, align 8
  %10 = alloca i64, align 8
  %11 = alloca i64, align 8
  store ptr %0, ptr %4, align 8
  store ptr %1, ptr %5, align 8
  %12 = load ptr, ptr %4, align 8
  call void @avifFractionSimplify(ptr noundef %12)
  %13 = load ptr, ptr %5, align 8
  call void @avifFractionSimplify(ptr noundef %13)
  %14 = load ptr, ptr %4, align 8
  %15 = getelementptr inbounds nuw %struct.avifFraction, ptr %14, i32 0, i32 1
  %16 = load i32, ptr %15, align 4
  %17 = load ptr, ptr %5, align 8
  %18 = getelementptr inbounds nuw %struct.avifFraction, ptr %17, i32 0, i32 1
  %19 = load i32, ptr %18, align 4
  %20 = icmp ne i32 %16, %19
  br i1 %20, label %21, label %87

21:                                               ; preds = %2
  %22 = load ptr, ptr %4, align 8
  %23 = getelementptr inbounds nuw %struct.avifFraction, ptr %22, i32 0, i32 1
  %24 = load i32, ptr %23, align 4
  %25 = sext i32 %24 to i64
  store i64 %25, ptr %6, align 8
  %26 = load ptr, ptr %5, align 8
  %27 = getelementptr inbounds nuw %struct.avifFraction, ptr %26, i32 0, i32 1
  %28 = load i32, ptr %27, align 4
  %29 = sext i32 %28 to i64
  store i64 %29, ptr %7, align 8
  %30 = load ptr, ptr %4, align 8
  %31 = getelementptr inbounds nuw %struct.avifFraction, ptr %30, i32 0, i32 0
  %32 = load i32, ptr %31, align 4
  %33 = sext i32 %32 to i64
  %34 = load i64, ptr %7, align 8
  %35 = mul nsw i64 %33, %34
  store i64 %35, ptr %8, align 8
  %36 = load ptr, ptr %4, align 8
  %37 = getelementptr inbounds nuw %struct.avifFraction, ptr %36, i32 0, i32 1
  %38 = load i32, ptr %37, align 4
  %39 = sext i32 %38 to i64
  %40 = load i64, ptr %7, align 8
  %41 = mul nsw i64 %39, %40
  store i64 %41, ptr %9, align 8
  %42 = load ptr, ptr %5, align 8
  %43 = getelementptr inbounds nuw %struct.avifFraction, ptr %42, i32 0, i32 0
  %44 = load i32, ptr %43, align 4
  %45 = sext i32 %44 to i64
  %46 = load i64, ptr %6, align 8
  %47 = mul nsw i64 %45, %46
  store i64 %47, ptr %10, align 8
  %48 = load ptr, ptr %5, align 8
  %49 = getelementptr inbounds nuw %struct.avifFraction, ptr %48, i32 0, i32 1
  %50 = load i32, ptr %49, align 4
  %51 = sext i32 %50 to i64
  %52 = load i64, ptr %6, align 8
  %53 = mul nsw i64 %51, %52
  store i64 %53, ptr %11, align 8
  %54 = load i64, ptr %8, align 8
  %55 = call i32 @overflowsInt32(i64 noundef %54)
  %56 = icmp ne i32 %55, 0
  br i1 %56, label %69, label %57

57:                                               ; preds = %21
  %58 = load i64, ptr %9, align 8
  %59 = call i32 @overflowsInt32(i64 noundef %58)
  %60 = icmp ne i32 %59, 0
  br i1 %60, label %69, label %61

61:                                               ; preds = %57
  %62 = load i64, ptr %10, align 8
  %63 = call i32 @overflowsInt32(i64 noundef %62)
  %64 = icmp ne i32 %63, 0
  br i1 %64, label %69, label %65

65:                                               ; preds = %61
  %66 = load i64, ptr %11, align 8
  %67 = call i32 @overflowsInt32(i64 noundef %66)
  %68 = icmp ne i32 %67, 0
  br i1 %68, label %69, label %70

69:                                               ; preds = %65, %61, %57, %21
  store i32 0, ptr %3, align 4
  br label %88

70:                                               ; preds = %65
  %71 = load i64, ptr %8, align 8
  %72 = trunc i64 %71 to i32
  %73 = load ptr, ptr %4, align 8
  %74 = getelementptr inbounds nuw %struct.avifFraction, ptr %73, i32 0, i32 0
  store i32 %72, ptr %74, align 4
  %75 = load i64, ptr %9, align 8
  %76 = trunc i64 %75 to i32
  %77 = load ptr, ptr %4, align 8
  %78 = getelementptr inbounds nuw %struct.avifFraction, ptr %77, i32 0, i32 1
  store i32 %76, ptr %78, align 4
  %79 = load i64, ptr %10, align 8
  %80 = trunc i64 %79 to i32
  %81 = load ptr, ptr %5, align 8
  %82 = getelementptr inbounds nuw %struct.avifFraction, ptr %81, i32 0, i32 0
  store i32 %80, ptr %82, align 4
  %83 = load i64, ptr %11, align 8
  %84 = trunc i64 %83 to i32
  %85 = load ptr, ptr %5, align 8
  %86 = getelementptr inbounds nuw %struct.avifFraction, ptr %85, i32 0, i32 1
  store i32 %84, ptr %86, align 4
  br label %87

87:                                               ; preds = %70, %2
  store i32 1, ptr %3, align 4
  br label %88

88:                                               ; preds = %87, %69
  %89 = load i32, ptr %3, align 4
  ret i32 %89
}