; Function Attrs: nofree norecurse nosync nounwind memory(argmem: readwrite) uwtable
define hidden range(i32 0, 2) i32 @avifFractionCD(ptr nocapture noundef %0, ptr nocapture noundef %1) local_unnamed_addr #7 {
  %3 = load i32, ptr %0, align 4
  %4 = sext i32 %3 to i64
  %5 = getelementptr inbounds nuw i8, ptr %0, i64 4
  %6 = load i32, ptr %5, align 4
  %7 = sext i32 %6 to i64
  %spec.select.i.i = tail call i64 @llvm.abs.i64(i64 %4, i1 true)
  %.not16.i.i = icmp eq i32 %6, 0
  br i1 %.not16.i.i, label %calcGCD.exit.i, label %.lr.ph.preheader.i.i

.lr.ph.preheader.i.i:                             ; preds = %2
  %.010.i.i = tail call i64 @llvm.abs.i64(i64 %7, i1 true)
  br label %.lr.ph.i.i

.lr.ph.i.i:                                       ; preds = %.lr.ph.i.i, %.lr.ph.preheader.i.i
  %.118.i.i = phi i64 [ %.11117.i.i, %.lr.ph.i.i ], [ %spec.select.i.i, %.lr.ph.preheader.i.i ]
  %.11117.i.i = phi i64 [ %8, %.lr.ph.i.i ], [ %.010.i.i, %.lr.ph.preheader.i.i ]
  %8 = urem i64 %.118.i.i, %.11117.i.i
  %.not.i.i = icmp eq i64 %8, 0
  br i1 %.not.i.i, label %calcGCD.exit.i, label %.lr.ph.i.i, !llvm.loop !4

calcGCD.exit.i:                                   ; preds = %.lr.ph.i.i, %2
  %.1.lcssa.i.i = phi i64 [ %spec.select.i.i, %2 ], [ %.11117.i.i, %.lr.ph.i.i ]
  %9 = icmp ugt i64 %.1.lcssa.i.i, 1
  br i1 %9, label %10, label %avifFractionSimplify.exit

10:                                               ; preds = %calcGCD.exit.i
  %11 = sdiv i64 %4, %.1.lcssa.i.i
  %12 = trunc nsw i64 %11 to i32
  store i32 %12, ptr %0, align 4
  %13 = sdiv i64 %7, %.1.lcssa.i.i
  %14 = trunc nsw i64 %13 to i32
  store i32 %14, ptr %5, align 4
  br label %avifFractionSimplify.exit

avifFractionSimplify.exit:                        ; preds = %calcGCD.exit.i, %10
  %15 = phi i32 [ %6, %calcGCD.exit.i ], [ %14, %10 ]
  %16 = load i32, ptr %1, align 4
  %17 = sext i32 %16 to i64
  %18 = getelementptr inbounds nuw i8, ptr %1, i64 4
  %19 = load i32, ptr %18, align 4
  %20 = sext i32 %19 to i64
  %spec.select.i.i32 = tail call i64 @llvm.abs.i64(i64 %17, i1 true)
  %.not16.i.i33 = icmp eq i32 %19, 0
  br i1 %.not16.i.i33, label %calcGCD.exit.i40, label %.lr.ph.preheader.i.i34

.lr.ph.preheader.i.i34:                           ; preds = %avifFractionSimplify.exit
  %.010.i.i35 = tail call i64 @llvm.abs.i64(i64 %20, i1 true)
  br label %.lr.ph.i.i36

.lr.ph.i.i36:                                     ; preds = %.lr.ph.i.i36, %.lr.ph.preheader.i.i34
  %.118.i.i37 = phi i64 [ %.11117.i.i38, %.lr.ph.i.i36 ], [ %spec.select.i.i32, %.lr.ph.preheader.i.i34 ]
  %.11117.i.i38 = phi i64 [ %21, %.lr.ph.i.i36 ], [ %.010.i.i35, %.lr.ph.preheader.i.i34 ]
  %21 = urem i64 %.118.i.i37, %.11117.i.i38
  %.not.i.i39 = icmp eq i64 %21, 0
  br i1 %.not.i.i39, label %calcGCD.exit.i40, label %.lr.ph.i.i36, !llvm.loop !4

calcGCD.exit.i40:                                 ; preds = %.lr.ph.i.i36, %avifFractionSimplify.exit
  %.1.lcssa.i.i41 = phi i64 [ %spec.select.i.i32, %avifFractionSimplify.exit ], [ %.11117.i.i38, %.lr.ph.i.i36 ]
  %22 = icmp ugt i64 %.1.lcssa.i.i41, 1
  br i1 %22, label %23, label %avifFractionSimplify.exit42

23:                                               ; preds = %calcGCD.exit.i40
  %24 = sdiv i64 %17, %.1.lcssa.i.i41
  %25 = trunc nsw i64 %24 to i32
  store i32 %25, ptr %1, align 4
  %26 = sdiv i64 %20, %.1.lcssa.i.i41
  %27 = trunc nsw i64 %26 to i32
  store i32 %27, ptr %18, align 4
  %.pre = load i32, ptr %5, align 4
  br label %avifFractionSimplify.exit42

avifFractionSimplify.exit42:                      ; preds = %calcGCD.exit.i40, %23
  %28 = phi i32 [ %16, %calcGCD.exit.i40 ], [ %25, %23 ]
  %29 = phi i32 [ %19, %calcGCD.exit.i40 ], [ %27, %23 ]
  %30 = phi i32 [ %15, %calcGCD.exit.i40 ], [ %.pre, %23 ]
  %.not = icmp eq i32 %30, %29
  br i1 %.not, label %50, label %31

31:                                               ; preds = %avifFractionSimplify.exit42
  %32 = sext i32 %30 to i64
  %33 = sext i32 %29 to i64
  %34 = load i32, ptr %0, align 4
  %35 = sext i32 %34 to i64
  %36 = mul nsw i64 %35, %33
  %37 = mul nsw i64 %33, %32
  %38 = sext i32 %28 to i64
  %39 = mul nsw i64 %38, %32
  %40 = add nsw i64 %36, 2147483648
  %41 = icmp ult i64 %40, 4294967296
  %42 = add nsw i64 %37, 2147483648
  %43 = icmp ult i64 %42, 4294967296
  %or.cond = select i1 %41, i1 %43, i1 false
  %44 = add nsw i64 %39, 2147483648
  %45 = icmp ult i64 %44, 4294967296
  %or.cond45 = select i1 %or.cond, i1 %45, i1 false
  br i1 %or.cond45, label %46, label %50

46:                                               ; preds = %31
  %47 = trunc i64 %36 to i32
  store i32 %47, ptr %0, align 4
  %48 = trunc i64 %37 to i32
  store i32 %48, ptr %5, align 4
  %49 = trunc i64 %39 to i32
  store i32 %49, ptr %1, align 4
  store i32 %48, ptr %18, align 4
  br label %50

50:                                               ; preds = %avifFractionSimplify.exit42, %46, %31
  %.0 = phi i32 [ 0, %31 ], [ 1, %46 ], [ 1, %avifFractionSimplify.exit42 ]
  ret i32 %.0
}